target datalayout = "e-m:e-p270:32:32-p271:32:32-p272:64:64-i64:64-i128:128-f80:128-n8:16:32:64-S128"
target triple = "x86_64-pc-linux-gnu"

%"class.Ipopt::Vector" = type <{ %"class.Ipopt::TaggedObject", %"class.Ipopt::SmartPtr.5", %"class.Ipopt::CachedResults", i32, [4 x i8], double, i32, [4 x i8], double, i32, [4 x i8], double, i32, [4 x i8], double, i32, [4 x i8], double, i32, [4 x i8], double, i32, [4 x i8], double, i32, i8, [3 x i8] }>
%"class.Ipopt::TaggedObject" = type { %"class.Ipopt::ReferencedObject.base", %"class.Ipopt::Subject", i32, i32 }
%"class.Ipopt::ReferencedObject.base" = type <{ ptr, i32 }>
%"class.Ipopt::Subject" = type { ptr, %"class.std::vector.0" }
%"class.std::vector.0" = type { %"struct.std::_Vector_base.1" }
%"struct.std::_Vector_base.1" = type { %"struct.std::_Vector_base<Ipopt::Observer *, std::allocator<Ipopt::Observer *>>::_Vector_impl" }
%"struct.std::_Vector_base<Ipopt::Observer *, std::allocator<Ipopt::Observer *>>::_Vector_impl" = type { %"struct.std::_Vector_base<Ipopt::Observer *, std::allocator<Ipopt::Observer *>>::_Vector_impl_data" }
%"struct.std::_Vector_base<Ipopt::Observer *, std::allocator<Ipopt::Observer *>>::_Vector_impl_data" = type { ptr, ptr, ptr }
%"class.Ipopt::SmartPtr.5" = type { ptr }
%"class.Ipopt::CachedResults" = type { ptr, i32, ptr }
%"class.Ipopt::VectorSpace" = type { %"class.Ipopt::ReferencedObject.base", i32 }

; Function Attrs: mustprogress nounwind uwtable
define linkonce_odr noundef i32 @_ZNK5Ipopt11VectorSpace3DimEv(ptr noundef nonnull align 8 dereferenceable(16) %0) #1 comdat align 2 {
  %2 = alloca ptr, align 8
  store ptr %0, ptr %2, align 8
  %3 = load ptr, ptr %2, align 8
  %4 = getelementptr inbounds %"class.Ipopt::VectorSpace", ptr %3, i32 0, i32 1
  %5 = load i32, ptr %4, align 4
  ret i32 %5
}

; Function Attrs: mustprogress nounwind uwtable
define linkonce_odr noundef ptr @_ZNK5Ipopt8SmartPtrIKNS_11VectorSpaceEEptEv(ptr noundef nonnull align 8 dereferenceable(8) %0) #1 comdat align 2 {
  %2 = alloca ptr, align 8
  store ptr %0, ptr %2, align 8
  %3 = load ptr, ptr %2, align 8
  %4 = getelementptr inbounds %"class.Ipopt::SmartPtr.5", ptr %3, i32 0, i32 0
  %5 = load ptr, ptr %4, align 8
  ret ptr %5
}

; Function Attrs: mustprogress uwtable
define linkonce_odr noundef i32 @_ZNK5Ipopt6Vector3DimEv(ptr noundef nonnull align 8 dereferenceable(205) %0) #0 comdat align 2 {
  %2 = alloca ptr, align 8
  store ptr %0, ptr %2, align 8
  %3 = load ptr, ptr %2, align 8
  %4 = getelementptr inbounds %"class.Ipopt::Vector", ptr %3, i32 0, i32 1
  %5 = call noundef ptr @_ZNK5Ipopt8SmartPtrIKNS_11VectorSpaceEEptEv(ptr noundef nonnull align 8 dereferenceable(8) %4)
  %6 = call noundef i32 @_ZNK5Ipopt11VectorSpace3DimEv(ptr noundef nonnull align 8 dereferenceable(16) %5)
  ret i32 %6
}

; Function Attrs: mustprogress nounwind uwtable
define linkonce_odr noundef double @_ZSt3absd(double noundef %0) #1 comdat {
  %2 = alloca double, align 8
  store double %0, ptr %2, align 8
  %3 = load double, ptr %2, align 8
  %4 = call double @llvm.fabs.f64(double %3)
  ret double %4
}

; Function Attrs: mustprogress nounwind uwtable
define linkonce_odr noundef i32 @_ZNK5Ipopt12TaggedObject6GetTagEv(ptr noundef nonnull align 8 dereferenceable(56) %0) #1 comdat align 2 {
  %2 = alloca ptr, align 8
  store ptr %0, ptr %2, align 8
  %3 = load ptr, ptr %2, align 8
  %4 = getelementptr inbounds %"class.Ipopt::TaggedObject", ptr %3, i32 0, i32 2
  %5 = load i32, ptr %4, align 8
  ret i32 %5
}

; Function Attrs: mustprogress uwtable
define void @_ZN5Ipopt6Vector4ScalEd(ptr noundef nonnull align 8 dereferenceable(205) %0, double noundef %1) #0 align 2 {
  %3 = alloca ptr, align 8
  %4 = alloca double, align 8
  %5 = alloca i32, align 4
  store ptr %0, ptr %3, align 8
  store double %1, ptr %4, align 8
  %6 = load ptr, ptr %3, align 8
  %7 = load double, ptr %4, align 8
  %8 = fcmp une double %7, 1.000000e+00
  br i1 %8, label %9, label %133

9:                                                ; preds = %2
  %10 = call noundef i32 @_ZNK5Ipopt12TaggedObject6GetTagEv(ptr noundef nonnull align 8 dereferenceable(56) %6)
  store i32 %10, ptr %5, align 4
  %11 = load double, ptr %4, align 8
  %12 = load ptr, ptr %6, align 8
  %13 = getelementptr inbounds ptr, ptr %12, i64 3
  %14 = load ptr, ptr %13, align 8
  call void %14(ptr noundef nonnull align 8 dereferenceable(205) %6, double noundef %11)
  call void @_ZN5Ipopt12TaggedObject13ObjectChangedEv(ptr noundef nonnull align 8 dereferenceable(56) %6)
  %15 = load i32, ptr %5, align 4
  %16 = getelementptr inbounds %"class.Ipopt::Vector", ptr %6, i32 0, i32 3
  %17 = load i32, ptr %16, align 8
  %18 = icmp eq i32 %15, %17
  br i1 %18, label %19, label %27

19:                                               ; preds = %9
  %20 = call noundef i32 @_ZNK5Ipopt12TaggedObject6GetTagEv(ptr noundef nonnull align 8 dereferenceable(56) %6)
  %21 = getelementptr inbounds %"class.Ipopt::Vector", ptr %6, i32 0, i32 3
  store i32 %20, ptr %21, align 8
  %22 = load double, ptr %4, align 8
  %23 = call noundef double @_ZSt3absd(double noundef %22)
  %24 = getelementptr inbounds %"class.Ipopt::Vector", ptr %6, i32 0, i32 5
  %25 = load double, ptr %24, align 8
  %26 = fmul double %25, %23
  store double %26, ptr %24, align 8
  br label %27

27:                                               ; preds = %19, %9
  %28 = load i32, ptr %5, align 4
  %29 = getelementptr inbounds %"class.Ipopt::Vector", ptr %6, i32 0, i32 6
  %30 = load i32, ptr %29, align 8
  %31 = icmp eq i32 %28, %30
  br i1 %31, label %32, label %40

32:                                               ; preds = %27
  %33 = call noundef i32 @_ZNK5Ipopt12TaggedObject6GetTagEv(ptr noundef nonnull align 8 dereferenceable(56) %6)
  %34 = getelementptr inbounds %"class.Ipopt::Vector", ptr %6, i32 0, i32 6
  store i32 %33, ptr %34, align 8
  %35 = load double, ptr %4, align 8
  %36 = call noundef double @_ZSt3absd(double noundef %35)
  %37 = getelementptr inbounds %"class.Ipopt::Vector", ptr %6, i32 0, i32 8
  %38 = load double, ptr %37, align 8
  %39 = fmul double %38, %36
  store double %39, ptr %37, align 8
  br label %40

40:                                               ; preds = %32, %27
  %41 = load i32, ptr %5, align 4
  %42 = getelementptr inbounds %"class.Ipopt::Vector", ptr %6, i32 0, i32 9
  %43 = load i32, ptr %42, align 8
  %44 = icmp eq i32 %41, %43
  br i1 %44, label %45, label %53

45:                                               ; preds = %40
  %46 = call noundef i32 @_ZNK5Ipopt12TaggedObject6GetTagEv(ptr noundef nonnull align 8 dereferenceable(56) %6)
  %47 = getelementptr inbounds %"class.Ipopt::Vector", ptr %6, i32 0, i32 9
  store i32 %46, ptr %47, align 8
  %48 = load double, ptr %4, align 8
  %49 = call noundef double @_ZSt3absd(double noundef %48)
  %50 = getelementptr inbounds %"class.Ipopt::Vector", ptr %6, i32 0, i32 11
  %51 = load double, ptr %50, align 8
  %52 = fmul double %51, %49
  store double %52, ptr %50, align 8
  br label %53

53:                                               ; preds = %45, %40
  %54 = load i32, ptr %5, align 4
  %55 = getelementptr inbounds %"class.Ipopt::Vector", ptr %6, i32 0, i32 12
  %56 = load i32, ptr %55, align 8
  %57 = icmp eq i32 %54, %56
  br i1 %57, label %58, label %77

58:                                               ; preds = %53
  %59 = load double, ptr %4, align 8
  %60 = fcmp oge double %59, 0.000000e+00
  br i1 %60, label %61, label %68

61:                                               ; preds = %58
  %62 = call noundef i32 @_ZNK5Ipopt12TaggedObject6GetTagEv(ptr noundef nonnull align 8 dereferenceable(56) %6)
  %63 = getelementptr inbounds %"class.Ipopt::Vector", ptr %6, i32 0, i32 12
  store i32 %62, ptr %63, align 8
  %64 = load double, ptr %4, align 8
  %65 = getelementptr inbounds %"class.Ipopt::Vector", ptr %6, i32 0, i32 14
  %66 = load double, ptr %65, align 8
  %67 = fmul double %66, %64
  store double %67, ptr %65, align 8
  br label %76

68:                                               ; preds = %58
  %69 = call noundef i32 @_ZNK5Ipopt12TaggedObject6GetTagEv(ptr noundef nonnull align 8 dereferenceable(56) %6)
  %70 = getelementptr inbounds %"class.Ipopt::Vector", ptr %6, i32 0, i32 15
  store i32 %69, ptr %70, align 8
  %71 = getelementptr inbounds %"class.Ipopt::Vector", ptr %6, i32 0, i32 14
  %72 = load double, ptr %71, align 8
  %73 = load double, ptr %4, align 8
  %74 = fmul double %72, %73
  %75 = getelementptr inbounds %"class.Ipopt::Vector", ptr %6, i32 0, i32 17
  store double %74, ptr %75, align 8
  br label %76

76:                                               ; preds = %68, %61
  br label %77

77:                                               ; preds = %76, %53
  %78 = load i32, ptr %5, align 4
  %79 = getelementptr inbounds %"class.Ipopt::Vector", ptr %6, i32 0, i32 15
  %80 = load i32, ptr %79, align 8
  %81 = icmp eq i32 %78, %80
  br i1 %81, label %82, label %101

82:                                               ; preds = %77
  %83 = load double, ptr %4, align 8
  %84 = fcmp oge double %83, 0.000000e+00
  br i1 %84, label %85, label %92

85:                                               ; preds = %82
  %86 = call noundef i32 @_ZNK5Ipopt12TaggedObject6GetTagEv(ptr noundef nonnull align 8 dereferenceable(56) %6)
  %87 = getelementptr inbounds %"class.Ipopt::Vector", ptr %6, i32 0, i32 15
  store i32 %86, ptr %87, align 8
  %88 = load double, ptr %4, align 8
  %89 = getelementptr inbounds %"class.Ipopt::Vector", ptr %6, i32 0, i32 17
  %90 = load double, ptr %89, align 8
  %91 = fmul double %90, %88
  store double %91, ptr %89, align 8
  br label %100

92:                                               ; preds = %82
  %93 = call noundef i32 @_ZNK5Ipopt12TaggedObject6GetTagEv(ptr noundef nonnull align 8 dereferenceable(56) %6)
  %94 = getelementptr inbounds %"class.Ipopt::Vector", ptr %6, i32 0, i32 12
  store i32 %93, ptr %94, align 8
  %95 = getelementptr inbounds %"class.Ipopt::Vector", ptr %6, i32 0, i32 17
  %96 = load double, ptr %95, align 8
  %97 = load double, ptr %4, align 8
  %98 = fmul double %96, %97
  %99 = getelementptr inbounds %"class.Ipopt::Vector", ptr %6, i32 0, i32 14
  store double %98, ptr %99, align 8
  br label %100

100:                                              ; preds = %92, %85
  br label %101

101:                                              ; preds = %100, %77
  %102 = load i32, ptr %5, align 4
  %103 = getelementptr inbounds %"class.Ipopt::Vector", ptr %6, i32 0, i32 18
  %104 = load i32, ptr %103, align 8
  %105 = icmp eq i32 %102, %104
  br i1 %105, label %106, label %113

106:                                              ; preds = %101
  %107 = call noundef i32 @_ZNK5Ipopt12TaggedObject6GetTagEv(ptr noundef nonnull align 8 dereferenceable(56) %6)
  %108 = getelementptr inbounds %"class.Ipopt::Vector", ptr %6, i32 0, i32 18
  store i32 %107, ptr %108, align 8
  %109 = load double, ptr %4, align 8
  %110 = getelementptr inbounds %"class.Ipopt::Vector", ptr %6, i32 0, i32 20
  %111 = load double, ptr %110, align 8
  %112 = fmul double %111, %109
  store double %112, ptr %110, align 8
  br label %113

113:                                              ; preds = %106, %101
  %114 = load i32, ptr %5, align 4
  %115 = getelementptr inbounds %"class.Ipopt::Vector", ptr %6, i32 0, i32 21
  %116 = load i32, ptr %115, align 8
  %117 = icmp eq i32 %114, %116
  br i1 %117, label %118, label %132

118:                                              ; preds = %113
  %119 = call noundef i32 @_ZNK5Ipopt12TaggedObject6GetTagEv(ptr noundef nonnull align 8 dereferenceable(56) %6)
  %120 = getelementptr inbounds %"class.Ipopt::Vector", ptr %6, i32 0, i32 21
  store i32 %119, ptr %120, align 8
  %121 = call noundef i32 @_ZNK5Ipopt6Vector3DimEv(ptr noundef nonnull align 8 dereferenceable(205) %6)
  %122 = icmp sgt i32 %121, 0
  br i1 %122, label %123, label %131

123:                                              ; preds = %118
  %124 = call noundef i32 @_ZNK5Ipopt6Vector3DimEv(ptr noundef nonnull align 8 dereferenceable(205) %6)
  %125 = sitofp i32 %124 to double
  %126 = load double, ptr %4, align 8
  %127 = call double @log(double noundef %126) #10
  %128 = getelementptr inbounds %"class.Ipopt::Vector", ptr %6, i32 0, i32 23
  %129 = load double, ptr %128, align 8
  %130 = call double @llvm.fmuladd.f64(double %125, double %127, double %129)
  store double %130, ptr %128, align 8
  br label %131

131:                                              ; preds = %123, %118
  br label %132

132:                                              ; preds = %131, %113
  br label %133

133:                                              ; preds = %132, %2
  ret void
}