; Function Attrs: mustprogress uwtable
define void @_ZN5Ipopt6Vector4ScalEd(ptr noundef nonnull align 8 dereferenceable(205) %0, double noundef %1) local_unnamed_addr #0 align 2 {
  %3 = fcmp une double %1, 1.000000e+00
  br i1 %3, label %4, label %97

4:                                                ; preds = %2
  %5 = getelementptr inbounds i8, ptr %0, i64 48
  %6 = load i32, ptr %5, align 8
  %7 = load ptr, ptr %0, align 8
  %8 = getelementptr inbounds i8, ptr %7, i64 24
  %9 = load ptr, ptr %8, align 8
  tail call void %9(ptr noundef nonnull align 8 dereferenceable(205) %0, double noundef %1)
  tail call void @_ZN5Ipopt12TaggedObject13ObjectChangedEv(ptr noundef nonnull align 8 dereferenceable(56) %0)
  %10 = getelementptr inbounds i8, ptr %0, i64 88
  %11 = load i32, ptr %10, align 8
  %12 = icmp eq i32 %6, %11
  br i1 %12, label %13, label %19

13:                                               ; preds = %4
  %14 = load i32, ptr %5, align 8
  store i32 %14, ptr %10, align 8
  %15 = tail call noundef double @llvm.fabs.f64(double %1)
  %16 = getelementptr inbounds i8, ptr %0, i64 96
  %17 = load double, ptr %16, align 8
  %18 = fmul double %15, %17
  store double %18, ptr %16, align 8
  br label %19

19:                                               ; preds = %13, %4
  %20 = getelementptr inbounds i8, ptr %0, i64 104
  %21 = load i32, ptr %20, align 8
  %22 = icmp eq i32 %6, %21
  br i1 %22, label %23, label %29

23:                                               ; preds = %19
  %24 = load i32, ptr %5, align 8
  store i32 %24, ptr %20, align 8
  %25 = tail call noundef double @llvm.fabs.f64(double %1)
  %26 = getelementptr inbounds i8, ptr %0, i64 112
  %27 = load double, ptr %26, align 8
  %28 = fmul double %25, %27
  store double %28, ptr %26, align 8
  br label %29

29:                                               ; preds = %23, %19
  %30 = getelementptr inbounds i8, ptr %0, i64 120
  %31 = load i32, ptr %30, align 8
  %32 = icmp eq i32 %6, %31
  br i1 %32, label %33, label %39

33:                                               ; preds = %29
  %34 = load i32, ptr %5, align 8
  store i32 %34, ptr %30, align 8
  %35 = tail call noundef double @llvm.fabs.f64(double %1)
  %36 = getelementptr inbounds i8, ptr %0, i64 128
  %37 = load double, ptr %36, align 8
  %38 = fmul double %35, %37
  store double %38, ptr %36, align 8
  br label %39

39:                                               ; preds = %33, %29
  %40 = getelementptr inbounds i8, ptr %0, i64 136
  %41 = load i32, ptr %40, align 8
  %42 = icmp eq i32 %6, %41
  br i1 %42, label %43, label %56

43:                                               ; preds = %39
  %44 = fcmp ult double %1, 0.000000e+00
  %45 = load i32, ptr %5, align 8
  br i1 %44, label %50, label %46

46:                                               ; preds = %43
  store i32 %45, ptr %40, align 8
  %47 = getelementptr inbounds i8, ptr %0, i64 144
  %48 = load double, ptr %47, align 8
  %49 = fmul double %48, %1
  store double %49, ptr %47, align 8
  br label %56

50:                                               ; preds = %43
  %51 = getelementptr inbounds i8, ptr %0, i64 152
  store i32 %45, ptr %51, align 8
  %52 = getelementptr inbounds i8, ptr %0, i64 144
  %53 = load double, ptr %52, align 8
  %54 = fmul double %53, %1
  %55 = getelementptr inbounds i8, ptr %0, i64 160
  store double %54, ptr %55, align 8
  br label %56

56:                                               ; preds = %46, %50, %39
  %57 = getelementptr inbounds i8, ptr %0, i64 152
  %58 = load i32, ptr %57, align 8
  %59 = icmp eq i32 %6, %58
  br i1 %59, label %60, label %71

60:                                               ; preds = %56
  %61 = fcmp ult double %1, 0.000000e+00
  %62 = load i32, ptr %5, align 8
  %63 = getelementptr inbounds i8, ptr %0, i64 160
  br i1 %61, label %67, label %64

64:                                               ; preds = %60
  store i32 %62, ptr %57, align 8
  %65 = load double, ptr %63, align 8
  %66 = fmul double %65, %1
  store double %66, ptr %63, align 8
  br label %71

67:                                               ; preds = %60
  store i32 %62, ptr %40, align 8
  %68 = load double, ptr %63, align 8
  %69 = fmul double %68, %1
  %70 = getelementptr inbounds i8, ptr %0, i64 144
  store double %69, ptr %70, align 8
  br label %71

71:                                               ; preds = %64, %67, %56
  %72 = getelementptr inbounds i8, ptr %0, i64 168
  %73 = load i32, ptr %72, align 8
  %74 = icmp eq i32 %6, %73
  br i1 %74, label %75, label %80

75:                                               ; preds = %71
  %76 = load i32, ptr %5, align 8
  store i32 %76, ptr %72, align 8
  %77 = getelementptr inbounds i8, ptr %0, i64 176
  %78 = load double, ptr %77, align 8
  %79 = fmul double %78, %1
  store double %79, ptr %77, align 8
  br label %80

80:                                               ; preds = %75, %71
  %81 = getelementptr inbounds i8, ptr %0, i64 184
  %82 = load i32, ptr %81, align 8
  %83 = icmp eq i32 %6, %82
  br i1 %83, label %84, label %97

84:                                               ; preds = %80
  %85 = load i32, ptr %5, align 8
  store i32 %85, ptr %81, align 8
  %86 = getelementptr inbounds i8, ptr %0, i64 56
  %87 = load ptr, ptr %86, align 8
  %88 = getelementptr inbounds i8, ptr %87, i64 12
  %89 = load i32, ptr %88, align 4
  %90 = icmp sgt i32 %89, 0
  br i1 %90, label %91, label %97

91:                                               ; preds = %84
  %92 = sitofp i32 %89 to double
  %93 = tail call double @log(double noundef %1) #10
  %94 = getelementptr inbounds i8, ptr %0, i64 192
  %95 = load double, ptr %94, align 8
  %96 = tail call double @llvm.fmuladd.f64(double %92, double %93, double %95)
  store double %96, ptr %94, align 8
  br label %97

97:                                               ; preds = %80, %91, %84, %2
  ret void
}